target datalayout = "e-m:e-p270:32:32-p271:32:32-p272:64:64-i64:64-i128:128-f80:128-n8:16:32:64-S128"
target triple = "x86_64-pc-linux-gnu"

%struct.darktable_t = type { %struct.dt_codepath_t, i32, i32, ptr, ptr, ptr, ptr, ptr, ptr, ptr, ptr, ptr, ptr, ptr, ptr, ptr, ptr, ptr, ptr, ptr, ptr, ptr, ptr, ptr, ptr, ptr, ptr, ptr, ptr, ptr, [64 x %struct.dt_pthread_mutex_t], %struct.dt_pthread_mutex_t, %struct.dt_pthread_mutex_t, %struct.dt_pthread_mutex_t, %struct.dt_pthread_mutex_t, %struct.dt_pthread_mutex_t, ptr, ptr, ptr, ptr, ptr, ptr, ptr, ptr, ptr, ptr, ptr, ptr, ptr, %struct.dt_lua_state_t, ptr, double, ptr, i32, [47 x i32], i32, i32, ptr, ptr, %struct.dt_sys_resources_t, %struct.dt_backthumb_t, %struct.dt_gimp_t }
%struct.dt_codepath_t = type { i8, [3 x i8] }
%struct.dt_pthread_mutex_t = type { %union.pthread_mutex_t }
%union.pthread_mutex_t = type { %struct.__pthread_mutex_s }
%struct.__pthread_mutex_s = type { i32, i32, i32, i32, i32, i16, i16, %struct.__pthread_internal_list }
%struct.__pthread_internal_list = type { ptr, ptr }
%struct.dt_lua_state_t = type { i32 }
%struct.dt_sys_resources_t = type { i64, i64, ptr, ptr, i32 }
%struct.dt_backthumb_t = type { double, double, i32, i32, i32, i32 }
%struct.dt_gimp_t = type { i32, ptr, ptr, i32, i32 }
%struct._color_harmony_t = type { i32, i32, i32 }

@darktable = external global %struct.darktable_t, align 8
@.str = private unnamed_addr constant [41 x i8] c"[sql] %s:%d, function %s(): prepare \22%s\22\00", align 1
@.str.1 = private unnamed_addr constant [124 x i8] c"generated/home/dtcxzyw/WorkSpace/Projects/compilers/llvm-opt-benchmark/bench/darktable/darktable/src/common/color_harmony.c\00", align 1
@stderr = external global ptr, align 8
@.str.3 = private unnamed_addr constant [53 x i8] c"sqlite3 error: %s:%d, function %s(), query \22%s\22: %s\0A\00", align 1
@.str.5 = private unnamed_addr constant [41 x i8] c"sqlite3 error: %s:%d, function %s(): %s\0A\00", align 1
@__FUNCTION__.dt_color_harmony_get = private unnamed_addr constant [21 x i8] c"dt_color_harmony_get\00", align 1
@.str.7 = private unnamed_addr constant [89 x i8] c"SELECT type, rotation, width FROM main.harmony_guide WHERE main.harmony_guide.imgid = ?1\00", align 1

; Function Attrs: nounwind uwtable
define i32 @dt_color_harmony_get(i32 noundef %0, ptr noundef %1) #0 {
  %3 = alloca i32, align 4
  %4 = alloca i32, align 4
  %5 = alloca ptr, align 8
  %6 = alloca ptr, align 8
  %7 = alloca i32, align 4
  %8 = alloca i32, align 4
  %9 = alloca i32, align 4
  store i32 %0, ptr %4, align 4, !tbaa !16
  store ptr %1, ptr %5, align 8, !tbaa !6
  call void @llvm.lifetime.start.p0(i64 8, ptr %6) #5
  store ptr null, ptr %6, align 8, !tbaa !17
  br label %10

10:                                               ; preds = %2
  br label %11

11:                                               ; preds = %10
  %12 = load i32, ptr getelementptr inbounds nuw (%struct.darktable_t, ptr @darktable, i32 0, i32 2), align 8, !tbaa !19
  %13 = and i32 256, %12
  %14 = icmp ne i32 %13, 0
  br i1 %14, label %15, label %21

15:                                               ; preds = %11
  %16 = load i32, ptr getelementptr inbounds nuw (%struct.darktable_t, ptr @darktable, i32 0, i32 2), align 8, !tbaa !19
  %17 = xor i32 %16, -1
  %18 = and i32 0, %17
  %19 = icmp ne i32 %18, 0
  br i1 %19, label %21, label %20

20:                                               ; preds = %15
  call void (ptr, ...) @dt_print_ext(ptr noundef @.str, ptr noundef @.str.1, i32 noundef 98, ptr noundef @__FUNCTION__.dt_color_harmony_get, ptr noundef @.str.7)
  br label %21

21:                                               ; preds = %20, %15, %11
  br label %22

22:                                               ; preds = %21
  br label %23

23:                                               ; preds = %22
  call void @llvm.lifetime.start.p0(i64 4, ptr %7) #5
  %24 = load ptr, ptr getelementptr inbounds nuw (%struct.darktable_t, ptr @darktable, i32 0, i32 18), align 8, !tbaa !57
  %25 = call ptr @dt_database_get(ptr noundef %24)
  %26 = call i32 @sqlite3_prepare_v2(ptr noundef %25, ptr noundef @.str.7, i32 noundef -1, ptr noundef %6, ptr noundef null)
  store i32 %26, ptr %7, align 4, !tbaa !16
  %27 = load i32, ptr %7, align 4, !tbaa !16
  %28 = icmp ne i32 %27, 0
  br i1 %28, label %29, label %35

29:                                               ; preds = %23
  %30 = load ptr, ptr @stderr, align 8, !tbaa !58
  %31 = load ptr, ptr getelementptr inbounds nuw (%struct.darktable_t, ptr @darktable, i32 0, i32 18), align 8, !tbaa !57
  %32 = call ptr @dt_database_get(ptr noundef %31)
  %33 = call ptr @sqlite3_errmsg(ptr noundef %32)
  %34 = call i32 (ptr, ptr, ...) @fprintf(ptr noundef %30, ptr noundef @.str.3, ptr noundef @.str.1, i32 noundef 98, ptr noundef @__FUNCTION__.dt_color_harmony_get, ptr noundef @.str.7, ptr noundef %33) #5
  br label %35

35:                                               ; preds = %29, %23
  call void @llvm.lifetime.end.p0(i64 4, ptr %7) #5
  br label %36

36:                                               ; preds = %35
  br label %37

37:                                               ; preds = %36
  call void @llvm.lifetime.start.p0(i64 4, ptr %8) #5
  %38 = load ptr, ptr %6, align 8, !tbaa !17
  %39 = load i32, ptr %4, align 4, !tbaa !16
  %40 = call i32 @sqlite3_bind_int(ptr noundef %38, i32 noundef 1, i32 noundef %39)
  store i32 %40, ptr %8, align 4, !tbaa !16
  %41 = load i32, ptr %8, align 4, !tbaa !16
  %42 = icmp ne i32 %41, 0
  br i1 %42, label %43, label %49

43:                                               ; preds = %37
  %44 = load ptr, ptr @stderr, align 8, !tbaa !58
  %45 = load ptr, ptr getelementptr inbounds nuw (%struct.darktable_t, ptr @darktable, i32 0, i32 18), align 8, !tbaa !57
  %46 = call ptr @dt_database_get(ptr noundef %45)
  %47 = call ptr @sqlite3_errmsg(ptr noundef %46)
  %48 = call i32 (ptr, ptr, ...) @fprintf(ptr noundef %44, ptr noundef @.str.5, ptr noundef @.str.1, i32 noundef 100, ptr noundef @__FUNCTION__.dt_color_harmony_get, ptr noundef %47) #5
  br label %49

49:                                               ; preds = %43, %37
  call void @llvm.lifetime.end.p0(i64 4, ptr %8) #5
  %50 = load ptr, ptr %6, align 8, !tbaa !17
  %51 = call i32 @sqlite3_step(ptr noundef %50)
  %52 = icmp eq i32 %51, 100
  br i1 %52, label %53, label %66

53:                                               ; preds = %49
  %54 = load ptr, ptr %6, align 8, !tbaa !17
  %55 = call i32 @sqlite3_column_int(ptr noundef %54, i32 noundef 0)
  %56 = load ptr, ptr %5, align 8, !tbaa !6
  %57 = getelementptr inbounds nuw %struct._color_harmony_t, ptr %56, i32 0, i32 0
  store i32 %55, ptr %57, align 4, !tbaa !11
  %58 = load ptr, ptr %6, align 8, !tbaa !17
  %59 = call i32 @sqlite3_column_int(ptr noundef %58, i32 noundef 1)
  %60 = load ptr, ptr %5, align 8, !tbaa !6
  %61 = getelementptr inbounds nuw %struct._color_harmony_t, ptr %60, i32 0, i32 1
  store i32 %59, ptr %61, align 4, !tbaa !14
  %62 = load ptr, ptr %6, align 8, !tbaa !17
  %63 = call i32 @sqlite3_column_int(ptr noundef %62, i32 noundef 2)
  %64 = load ptr, ptr %5, align 8, !tbaa !6
  %65 = getelementptr inbounds nuw %struct._color_harmony_t, ptr %64, i32 0, i32 2
  store i32 %63, ptr %65, align 4, !tbaa !15
  store i32 1, ptr %3, align 4
  store i32 1, ptr %9, align 4
  br label %67

66:                                               ; preds = %49
  store i32 0, ptr %3, align 4
  store i32 1, ptr %9, align 4
  br label %67

67:                                               ; preds = %66, %53
  call void @llvm.lifetime.end.p0(i64 8, ptr %6) #5
  %68 = load i32, ptr %3, align 4
  ret i32 %68
}