; Function Attrs: nounwind uwtable
define range(i32 0, 2) i32 @dt_color_harmony_get(i32 noundef %0, ptr noundef writeonly captures(none) %1) local_unnamed_addr #1 {
  %3 = alloca ptr, align 8
  call void @llvm.lifetime.start.p0(i64 8, ptr nonnull %3) #5
  store ptr null, ptr %3, align 8, !tbaa !13
  %4 = load i32, ptr getelementptr inbounds nuw (i8, ptr @darktable, i64 8), align 8, !tbaa !16
  %5 = and i32 %4, 256
  %.not = icmp eq i32 %5, 0
  br i1 %.not, label %7, label %6

6:                                                ; preds = %2
  tail call void (ptr, ...) @dt_print_ext(ptr noundef nonnull @.str, ptr noundef nonnull @.str.1, i32 noundef 98, ptr noundef nonnull @__FUNCTION__.dt_color_harmony_get, ptr noundef nonnull @.str.7) #5
  br label %7

7:                                                ; preds = %6, %2
  %8 = load ptr, ptr getelementptr inbounds nuw (i8, ptr @darktable, i64 136), align 8, !tbaa !54
  %9 = tail call ptr @dt_database_get(ptr noundef %8) #5
  %10 = call i32 @sqlite3_prepare_v2(ptr noundef %9, ptr noundef nonnull @.str.7, i32 noundef -1, ptr noundef nonnull %3, ptr noundef null) #5
  %.not6 = icmp eq i32 %10, 0
  br i1 %.not6, label %17, label %11

11:                                               ; preds = %7
  %12 = load ptr, ptr @stderr, align 8, !tbaa !55
  %13 = load ptr, ptr getelementptr inbounds nuw (i8, ptr @darktable, i64 136), align 8, !tbaa !54
  %14 = call ptr @dt_database_get(ptr noundef %13) #5
  %15 = call ptr @sqlite3_errmsg(ptr noundef %14) #5
  %16 = call i32 (ptr, ptr, ...) @fprintf(ptr noundef %12, ptr noundef nonnull @.str.3, ptr noundef nonnull @.str.1, i32 noundef 98, ptr noundef nonnull @__FUNCTION__.dt_color_harmony_get, ptr noundef nonnull @.str.7, ptr noundef %15) #6
  br label %17

17:                                               ; preds = %11, %7
  %18 = load ptr, ptr %3, align 8, !tbaa !13
  %19 = call i32 @sqlite3_bind_int(ptr noundef %18, i32 noundef 1, i32 noundef %0) #5
  %.not7 = icmp eq i32 %19, 0
  br i1 %.not7, label %26, label %20

20:                                               ; preds = %17
  %21 = load ptr, ptr @stderr, align 8, !tbaa !55
  %22 = load ptr, ptr getelementptr inbounds nuw (i8, ptr @darktable, i64 136), align 8, !tbaa !54
  %23 = call ptr @dt_database_get(ptr noundef %22) #5
  %24 = call ptr @sqlite3_errmsg(ptr noundef %23) #5
  %25 = call i32 (ptr, ptr, ...) @fprintf(ptr noundef %21, ptr noundef nonnull @.str.5, ptr noundef nonnull @.str.1, i32 noundef 100, ptr noundef nonnull @__FUNCTION__.dt_color_harmony_get, ptr noundef %24) #6
  br label %26

26:                                               ; preds = %20, %17
  %27 = load ptr, ptr %3, align 8, !tbaa !13
  %28 = call i32 @sqlite3_step(ptr noundef %27) #5
  %29 = icmp eq i32 %28, 100
  br i1 %29, label %30, label %39

30:                                               ; preds = %26
  %31 = load ptr, ptr %3, align 8, !tbaa !13
  %32 = call i32 @sqlite3_column_int(ptr noundef %31, i32 noundef 0) #5
  store i32 %32, ptr %1, align 4, !tbaa !6
  %33 = load ptr, ptr %3, align 8, !tbaa !13
  %34 = call i32 @sqlite3_column_int(ptr noundef %33, i32 noundef 1) #5
  %35 = getelementptr inbounds nuw i8, ptr %1, i64 4
  store i32 %34, ptr %35, align 4, !tbaa !11
  %36 = load ptr, ptr %3, align 8, !tbaa !13
  %37 = call i32 @sqlite3_column_int(ptr noundef %36, i32 noundef 2) #5
  %38 = getelementptr inbounds nuw i8, ptr %1, i64 8
  store i32 %37, ptr %38, align 4, !tbaa !12
  br label %39

39:                                               ; preds = %26, %30
  %.0 = phi i32 [ 1, %30 ], [ 0, %26 ]
  call void @llvm.lifetime.end.p0(i64 8, ptr nonnull %3) #5
  ret i32 %.0
}